target datalayout = "e-m:e-p270:32:32-p271:32:32-p272:64:64-i64:64-i128:128-f80:128-n8:16:32:64-S128"
target triple = "x86_64-pc-linux-gnu"

%struct.PaPulseAudio_HostApiRepresentation = type { %struct.PaUtilHostApiRepresentation, %struct.PaUtilStreamInterface, %struct.PaUtilStreamInterface, ptr, i32, [1024 x %struct.PaDeviceInfo], [1024 x ptr], %struct.pa_sample_spec, ptr, ptr, ptr, i32, ptr }
%struct.PaUtilHostApiRepresentation = type { %struct.PaUtilPrivatePaFrontHostApiInfo, %struct.PaHostApiInfo, ptr, ptr, ptr, ptr }
%struct.PaUtilPrivatePaFrontHostApiInfo = type { i64 }
%struct.PaHostApiInfo = type { i32, i32, ptr, i32, i32, i32 }
%struct.PaUtilStreamInterface = type { ptr, ptr, ptr, ptr, ptr, ptr, ptr, ptr, ptr, ptr, ptr, ptr }
%struct.PaDeviceInfo = type { i32, ptr, i32, i32, i32, double, double, double, double, double }
%struct.pa_sample_spec = type { i32, i32, i8 }
%struct.pa_channel_map = type { i8, [32 x i32] }
%struct.pa_sink_info = type { ptr, i32, ptr, %struct.pa_sample_spec, %struct.pa_channel_map, i32, %struct.pa_cvolume, i32, i32, ptr, i64, ptr, i32, ptr, i64, i32, i32, i32, i32, i32, ptr, ptr, i8, ptr }
%struct.pa_cvolume = type { i8, [32 x i32] }

@.str.9 = private unnamed_addr constant [54 x i8] c"PaPulseAudio_SinkListCb: Invalid context or sink info\00", align 1
@.str.10 = private unnamed_addr constant [67 x i8] c"PaPulseAudio_SinkListCb: Can't add device. Maximum amount reached!\00", align 1

; Function Attrs: nounwind uwtable
define void @PaPulseAudio_SinkListCb(ptr noundef %0, ptr noundef %1, i32 noundef %2, ptr noundef %3) #0 {
  %5 = alloca ptr, align 8
  %6 = alloca ptr, align 8
  %7 = alloca i32, align 4
  %8 = alloca ptr, align 8
  %9 = alloca ptr, align 8
  %10 = alloca ptr, align 8
  store ptr %0, ptr %5, align 8
  store ptr %1, ptr %6, align 8
  store i32 %2, ptr %7, align 4
  store ptr %3, ptr %8, align 8
  %11 = load ptr, ptr %8, align 8
  store ptr %11, ptr %9, align 8
  store ptr null, ptr %10, align 8
  %12 = load ptr, ptr %5, align 8
  %13 = icmp ne ptr %12, null
  br i1 %13, label %14, label %17

14:                                               ; preds = %4
  %15 = load ptr, ptr %6, align 8
  %16 = icmp ne ptr %15, null
  br i1 %16, label %18, label %17

17:                                               ; preds = %14, %4
  call void @PaUtil_SetLastHostErrorInfo(i32 noundef 0, i64 noundef 0, ptr noundef @.str.9)
  br label %54

18:                                               ; preds = %14
  %19 = load i32, ptr %7, align 4
  %20 = icmp sgt i32 %19, 0
  br i1 %20, label %21, label %22

21:                                               ; preds = %18
  br label %54

22:                                               ; preds = %18
  %23 = load ptr, ptr %6, align 8
  %24 = getelementptr inbounds nuw %struct.pa_sink_info, ptr %23, i32 0, i32 0
  %25 = load ptr, ptr %24, align 8
  store ptr %25, ptr %10, align 8
  %26 = load ptr, ptr %6, align 8
  %27 = getelementptr inbounds nuw %struct.pa_sink_info, ptr %26, i32 0, i32 2
  %28 = load ptr, ptr %27, align 8
  %29 = icmp ne ptr %28, null
  br i1 %29, label %30, label %34

30:                                               ; preds = %22
  %31 = load ptr, ptr %6, align 8
  %32 = getelementptr inbounds nuw %struct.pa_sink_info, ptr %31, i32 0, i32 2
  %33 = load ptr, ptr %32, align 8
  store ptr %33, ptr %10, align 8
  br label %34

34:                                               ; preds = %30, %22
  %35 = load ptr, ptr %9, align 8
  %36 = load ptr, ptr %10, align 8
  %37 = load ptr, ptr %6, align 8
  %38 = getelementptr inbounds nuw %struct.pa_sink_info, ptr %37, i32 0, i32 0
  %39 = load ptr, ptr %38, align 8
  %40 = load ptr, ptr %6, align 8
  %41 = getelementptr inbounds nuw %struct.pa_sink_info, ptr %40, i32 0, i32 3
  %42 = getelementptr inbounds nuw %struct.pa_sample_spec, ptr %41, i32 0, i32 2
  %43 = load i8, ptr %42, align 8
  %44 = zext i8 %43 to i32
  %45 = load ptr, ptr %6, align 8
  %46 = getelementptr inbounds nuw %struct.pa_sink_info, ptr %45, i32 0, i32 3
  %47 = getelementptr inbounds nuw %struct.pa_sample_spec, ptr %46, i32 0, i32 1
  %48 = load i32, ptr %47, align 4
  %49 = zext i32 %48 to i64
  %50 = call i32 @_PaPulseAudio_AddAudioDevice(ptr noundef %35, ptr noundef %36, ptr noundef %39, i32 noundef 0, i32 noundef %44, double noundef 0.000000e+00, double noundef 0.000000e+00, double noundef 1.000000e-02, double noundef 8.000000e-02, i64 noundef %49)
  %51 = icmp ne i32 %50, 0
  br i1 %51, label %52, label %53

52:                                               ; preds = %34
  call void @PaUtil_SetLastHostErrorInfo(i32 noundef 0, i64 noundef 0, ptr noundef @.str.10)
  br label %53

53:                                               ; preds = %52, %34
  br label %54

54:                                               ; preds = %53, %21, %17
  %55 = load ptr, ptr %9, align 8
  %56 = getelementptr inbounds nuw %struct.PaPulseAudio_HostApiRepresentation, ptr %55, i32 0, i32 8
  %57 = load ptr, ptr %56, align 8
  call void @pa_threaded_mainloop_signal(ptr noundef %57, i32 noundef 0)
  ret void
}