; Function Attrs: nounwind uwtable
define void @PaPulseAudio_SinkListCb(ptr noundef readnone %0, ptr noundef readonly %1, i32 noundef %2, ptr nocapture noundef %3) #0 {
  %5 = icmp ne ptr %0, null
  %6 = icmp ne ptr %1, null
  %or.cond = and i1 %5, %6
  br i1 %or.cond, label %7, label %.sink.split

7:                                                ; preds = %4
  %8 = icmp sgt i32 %2, 0
  br i1 %8, label %20, label %9

9:                                                ; preds = %7
  %10 = load ptr, ptr %1, align 8
  %11 = getelementptr inbounds nuw i8, ptr %1, i64 16
  %12 = load ptr, ptr %11, align 8
  %.not = icmp eq ptr %12, null
  %spec.select = select i1 %.not, ptr %10, ptr %12
  %13 = getelementptr inbounds i8, ptr %1, i64 32
  %14 = load i8, ptr %13, align 8
  %15 = zext i8 %14 to i32
  %16 = getelementptr inbounds i8, ptr %1, i64 28
  %17 = load i32, ptr %16, align 4
  %18 = zext i32 %17 to i64
  %19 = tail call i32 @_PaPulseAudio_AddAudioDevice(ptr noundef %3, ptr noundef %spec.select, ptr noundef %10, i32 noundef 0, i32 noundef %15, double noundef 0.000000e+00, double noundef 0.000000e+00, double noundef 1.000000e-02, double noundef 8.000000e-02, i64 noundef %18)
  %.not15 = icmp eq i32 %19, 0
  br i1 %.not15, label %20, label %.sink.split

.sink.split:                                      ; preds = %9, %4
  %.str.10.sink = phi ptr [ @.str.9, %4 ], [ @.str.10, %9 ]
  tail call void @PaUtil_SetLastHostErrorInfo(i32 noundef 0, i64 noundef 0, ptr noundef nonnull %.str.10.sink) #13
  br label %20

20:                                               ; preds = %.sink.split, %9, %7
  %21 = getelementptr inbounds nuw i8, ptr %3, i64 82216
  %22 = load ptr, ptr %21, align 8
  tail call void @pa_threaded_mainloop_signal(ptr noundef %22, i32 noundef 0) #13
  ret void
}